; Function Attrs: mustprogress nounwind uwtable
define hidden noundef ptr @_ZN18CompiledDirectCall19emit_to_interp_stubEP14MacroAssemblerPh(ptr noundef %0, ptr noundef %1) local_unnamed_addr #0 align 2 {
  %3 = alloca %class.RelocationHolder, align 8
  %4 = icmp eq ptr %1, null
  br i1 %4, label %5, label %10

5:                                                ; preds = %2
  %6 = getelementptr inbounds i8, ptr %0, i64 8
  %7 = load ptr, ptr %6, align 8
  %8 = getelementptr inbounds i8, ptr %7, i64 8
  %9 = load ptr, ptr %8, align 8
  br label %10

10:                                               ; preds = %5, %2
  %.010 = phi ptr [ %9, %5 ], [ %1, %2 ]
  %11 = tail call noundef ptr @_ZN17AbstractAssembler12start_a_stubEi(ptr noundef nonnull align 8 dereferenceable(24) %0, i32 noundef 15) #4
  %12 = icmp eq ptr %11, null
  br i1 %12, label %21, label %13

13:                                               ; preds = %10
  %14 = getelementptr inbounds i8, ptr %3, i64 8
  store ptr null, ptr %14, align 8, !alias.scope !6
  %15 = getelementptr inbounds i8, ptr %3, i64 16
  store i32 5, ptr %15, align 8, !alias.scope !6
  store ptr getelementptr inbounds inrange(-16, 72) (i8, ptr @_ZTV22static_stub_Relocation, i64 16), ptr %3, align 8, !alias.scope !6
  %16 = getelementptr inbounds i8, ptr %3, i64 24
  store ptr %.010, ptr %16, align 8, !alias.scope !6
  %17 = getelementptr inbounds i8, ptr %0, i64 8
  %18 = load ptr, ptr %17, align 8
  %19 = getelementptr inbounds i8, ptr %18, i64 16
  %20 = load ptr, ptr %19, align 8
  call void @_ZN11CodeSection8relocateEPhRK16RelocationHolderi(ptr noundef nonnull align 8 dereferenceable(88) %18, ptr noundef %20, ptr noundef nonnull align 8 dereferenceable(40) %3, i32 noundef 0) #4
  call void @_ZN14MacroAssembler21emit_static_call_stubEv(ptr noundef nonnull align 8 dereferenceable(40) %0) #4
  call void @_ZN17AbstractAssembler10end_a_stubEv(ptr noundef nonnull align 8 dereferenceable(24) %0) #4
  br label %21

21:                                               ; preds = %10, %13
  ret ptr %11
}